target datalayout = "e-m:e-p270:32:32-p271:32:32-p272:64:64-i64:64-i128:128-f80:128-n8:16:32:64-S128"
target triple = "x86_64-pc-linux-gnu"

@.str.4 = private unnamed_addr constant [2 x i8] c"r\00", align 1

; Function Attrs: nounwind uwtable
define i32 @cl_verify_signature_x509(ptr noundef %0, ptr noundef %1, ptr noundef %2, i32 noundef %3, ptr noundef %4, i64 noundef %5, i32 noundef %6) #0 {
  %8 = alloca i32, align 4
  %9 = alloca ptr, align 8
  %10 = alloca ptr, align 8
  %11 = alloca ptr, align 8
  %12 = alloca i32, align 4
  %13 = alloca ptr, align 8
  %14 = alloca i64, align 8
  %15 = alloca i32, align 4
  %16 = alloca ptr, align 8
  %17 = alloca i32, align 4
  %18 = alloca i32, align 4
  store ptr %0, ptr %9, align 8, !tbaa !26
  store ptr %1, ptr %10, align 8, !tbaa !3
  store ptr %2, ptr %11, align 8, !tbaa !3
  store i32 %3, ptr %12, align 4, !tbaa !13
  store ptr %4, ptr %13, align 8, !tbaa !3
  store i64 %5, ptr %14, align 8, !tbaa !9
  store i32 %6, ptr %15, align 4, !tbaa !13
  call void @llvm.lifetime.start.p0(i64 8, ptr %16) #8
  call void @llvm.lifetime.start.p0(i64 4, ptr %17) #8
  %19 = load ptr, ptr %9, align 8, !tbaa !26
  %20 = call ptr @X509_get_pubkey(ptr noundef %19)
  store ptr %20, ptr %16, align 8, !tbaa !24
  %21 = load ptr, ptr %16, align 8, !tbaa !24
  %22 = icmp ne ptr %21, null
  br i1 %22, label %24, label %23

23:                                               ; preds = %7
  store i32 -1, ptr %8, align 4
  store i32 1, ptr %18, align 4
  br label %35

24:                                               ; preds = %7
  %25 = load ptr, ptr %16, align 8, !tbaa !24
  %26 = load ptr, ptr %10, align 8, !tbaa !3
  %27 = load ptr, ptr %11, align 8, !tbaa !3
  %28 = load i32, ptr %12, align 4, !tbaa !13
  %29 = load ptr, ptr %13, align 8, !tbaa !3
  %30 = load i64, ptr %14, align 8, !tbaa !9
  %31 = load i32, ptr %15, align 4, !tbaa !13
  %32 = call i32 @cl_verify_signature(ptr noundef %25, ptr noundef %26, ptr noundef %27, i32 noundef %28, ptr noundef %29, i64 noundef %30, i32 noundef %31)
  store i32 %32, ptr %17, align 4, !tbaa !13
  %33 = load ptr, ptr %16, align 8, !tbaa !24
  call void @EVP_PKEY_free(ptr noundef %33)
  %34 = load i32, ptr %17, align 4, !tbaa !13
  store i32 %34, ptr %8, align 4
  store i32 1, ptr %18, align 4
  br label %35

35:                                               ; preds = %24, %23
  call void @llvm.lifetime.end.p0(i64 4, ptr %17) #8
  call void @llvm.lifetime.end.p0(i64 8, ptr %16) #8
  %36 = load i32, ptr %8, align 4
  ret i32 %36
}

; Function Attrs: nounwind uwtable
define i32 @cl_verify_signature_x509_keyfile(ptr noundef %0, ptr noundef %1, ptr noundef %2, i32 noundef %3, ptr noundef %4, i64 noundef %5, i32 noundef %6) #0 {
  %8 = alloca i32, align 4
  %9 = alloca ptr, align 8
  %10 = alloca ptr, align 8
  %11 = alloca ptr, align 8
  %12 = alloca i32, align 4
  %13 = alloca ptr, align 8
  %14 = alloca i64, align 8
  %15 = alloca i32, align 4
  %16 = alloca ptr, align 8
  %17 = alloca ptr, align 8
  %18 = alloca i32, align 4
  %19 = alloca i32, align 4
  store ptr %0, ptr %9, align 8, !tbaa !3
  store ptr %1, ptr %10, align 8, !tbaa !3
  store ptr %2, ptr %11, align 8, !tbaa !3
  store i32 %3, ptr %12, align 4, !tbaa !13
  store ptr %4, ptr %13, align 8, !tbaa !3
  store i64 %5, ptr %14, align 8, !tbaa !9
  store i32 %6, ptr %15, align 4, !tbaa !13
  call void @llvm.lifetime.start.p0(i64 8, ptr %16) #8
  call void @llvm.lifetime.start.p0(i64 8, ptr %17) #8
  call void @llvm.lifetime.start.p0(i64 4, ptr %18) #8
  %20 = load ptr, ptr %9, align 8, !tbaa !3
  %21 = call noalias ptr @fopen(ptr noundef %20, ptr noundef @.str.4)
  store ptr %21, ptr %17, align 8, !tbaa !22
  %22 = load ptr, ptr %17, align 8, !tbaa !22
  %23 = icmp ne ptr %22, null
  br i1 %23, label %25, label %24

24:                                               ; preds = %7
  store i32 -1, ptr %8, align 4
  store i32 1, ptr %19, align 4
  br label %46

25:                                               ; preds = %7
  %26 = load ptr, ptr %17, align 8, !tbaa !22
  %27 = call ptr @PEM_read_X509(ptr noundef %26, ptr noundef null, ptr noundef null, ptr noundef null)
  store ptr %27, ptr %16, align 8, !tbaa !26
  %28 = load ptr, ptr %16, align 8, !tbaa !26
  %29 = icmp ne ptr %28, null
  br i1 %29, label %33, label %30

30:                                               ; preds = %25
  %31 = load ptr, ptr %17, align 8, !tbaa !22
  %32 = call i32 @fclose(ptr noundef %31)
  store i32 -1, ptr %8, align 4
  store i32 1, ptr %19, align 4
  br label %46

33:                                               ; preds = %25
  %34 = load ptr, ptr %17, align 8, !tbaa !22
  %35 = call i32 @fclose(ptr noundef %34)
  %36 = load ptr, ptr %16, align 8, !tbaa !26
  %37 = load ptr, ptr %10, align 8, !tbaa !3
  %38 = load ptr, ptr %11, align 8, !tbaa !3
  %39 = load i32, ptr %12, align 4, !tbaa !13
  %40 = load ptr, ptr %13, align 8, !tbaa !3
  %41 = load i64, ptr %14, align 8, !tbaa !9
  %42 = load i32, ptr %15, align 4, !tbaa !13
  %43 = call i32 @cl_verify_signature_x509(ptr noundef %36, ptr noundef %37, ptr noundef %38, i32 noundef %39, ptr noundef %40, i64 noundef %41, i32 noundef %42)
  store i32 %43, ptr %18, align 4, !tbaa !13
  %44 = load ptr, ptr %16, align 8, !tbaa !26
  call void @X509_free(ptr noundef %44)
  %45 = load i32, ptr %18, align 4, !tbaa !13
  store i32 %45, ptr %8, align 4
  store i32 1, ptr %19, align 4
  br label %46

46:                                               ; preds = %33, %30, %24
  call void @llvm.lifetime.end.p0(i64 4, ptr %18) #8
  call void @llvm.lifetime.end.p0(i64 8, ptr %17) #8
  call void @llvm.lifetime.end.p0(i64 8, ptr %16) #8
  %47 = load i32, ptr %8, align 4
  ret i32 %47
}