; Function Attrs: nounwind uwtable
define range(i32 -1, 1) i32 @cl_verify_signature_x509_keyfile(ptr noundef readonly captures(none) %0, ptr noundef %1, ptr noundef %2, i32 noundef %3, ptr noundef %4, i64 noundef %5, i32 noundef %6) local_unnamed_addr #1 {
  %8 = tail call noalias ptr @fopen(ptr noundef %0, ptr noundef nonnull @.str.4)
  %.not = icmp eq ptr %8, null
  br i1 %.not, label %16, label %9

9:                                                ; preds = %7
  %10 = tail call ptr @PEM_read_X509(ptr noundef nonnull %8, ptr noundef null, ptr noundef null, ptr noundef null) #12
  %.not17 = icmp eq ptr %10, null
  %11 = tail call i32 @fclose(ptr noundef nonnull %8)
  br i1 %.not17, label %16, label %12

12:                                               ; preds = %9
  %13 = tail call ptr @X509_get_pubkey(ptr noundef nonnull %10) #12
  %.not.i = icmp eq ptr %13, null
  br i1 %.not.i, label %cl_verify_signature_x509.exit, label %14

14:                                               ; preds = %12
  %15 = tail call i32 @cl_verify_signature(ptr noundef nonnull %13, ptr noundef %1, ptr noundef %2, i32 noundef %3, ptr noundef %4, i64 noundef %5, i32 noundef %6)
  tail call void @EVP_PKEY_free(ptr noundef nonnull %13) #12
  br label %cl_verify_signature_x509.exit

cl_verify_signature_x509.exit:                    ; preds = %12, %14
  %.0.i = phi i32 [ %15, %14 ], [ -1, %12 ]
  tail call void @X509_free(ptr noundef nonnull %10) #12
  br label %16

16:                                               ; preds = %9, %7, %cl_verify_signature_x509.exit
  %.0 = phi i32 [ %.0.i, %cl_verify_signature_x509.exit ], [ -1, %7 ], [ -1, %9 ]
  ret i32 %.0
}